(dp0
S'KSEA'
p1
(dp2
S'gefs4'
p3
(lp4
I85
aI476
aF23.897281743782738
asS'gefs2'
p5
(lp6
I86
aI476
aF54.98144300345079
asS'gefs3'
p7
(lp8
I85
aI475
aF15.393311176176203
asS'gefs1'
p9
(lp10
I86
aI475
aF51.85395866244512
asS'lon'
p11
F-122.3093
sS'gefsclosest'
p12
(lp13
I86
aI475
asS'lon360'
p14
F237.6907
sS'lat'
p15
F47.449
ssS'KEYW'
p16
(dp17
g3
(lp18
I130
aI557
aF55.51613166449533
asg5
(lp19
I131
aI557
aF26.550901020296386
asg7
(lp20
I130
aI556
aF55.019098899402174
asg9
(lp21
I131
aI556
aF25.495307680084814
asg11
F-81.75539
sg12
(lp22
I131
aI556
asg14
F278.24461
sg15
F24.55707
ssS'KGRI'
p23
(dp24
g3
(lp25
I98
aI524
aF26.145019065592233
asg5
(lp26
I99
aI524
aF57.96277444998782
asg7
(lp27
I98
aI523
aF16.425521738967717
asg9
(lp28
I99
aI523
aF54.27632047585097
asg11
F-98.3089
sg12
(lp29
I99
aI523
asg14
F261.6911
sg15
F40.9672
ssS'KRNO'
p30
(dp31
g3
(lp32
I101
aI481
aF22.963841472569037
asg5
(lp33
I102
aI481
aF59.91943436963772
asg7
(lp34
I101
aI480
aF19.863319198576512
asg9
(lp35
I102
aI480
aF58.80095279487041
asg11
F-119.7681
sg12
(lp36
I102
aI480
asg14
F240.2319
sg15
F39.4986
ssS'KMDT'
p37
(dp38
g3
(lp39
I99
aI567
aF40.70169731586135
asg5
(lp40
I100
aI567
aF30.971915736550063
asg7
(lp41
I99
aI566
aF39.50962874816123
asg9
(lp42
I100
aI566
aF29.387789365950788
asg11
F-76.7633
sg12
(lp43
I100
aI566
asg14
F283.2367
sg15
F40.1934
ssS'KTVC'
p44
(dp45
g3
(lp46
I90
aI549
aF29.836699621604154
asg5
(lp47
I91
aI549
aF27.065103811178165
asg7
(lp48
I90
aI548
aF44.16139980625731
asg9
(lp49
I91
aI548
aF42.338167566016836
asg11
F-85.5795
sg12
(lp50
I91
aI548
asg14
F274.4205
sg15
F44.7372
ss.